target datalayout = "e-m:e-p270:32:32-p271:32:32-p272:64:64-i64:64-i128:128-f80:128-n8:16:32:64-S128"
target triple = "x86_64-unknown-linux-gnu"

%struct.HMPCommand = type { ptr, ptr, ptr, ptr, ptr, ptr, ptr, i8, ptr, ptr }
%struct.HandleHmpCommandCo = type { ptr, ptr, ptr, i8 }
%struct.HumanReadableText = type { ptr }

; Function Attrs: nounwind sspstrong uwtable
define internal void @glib_autoptr_clear_HumanReadableText(ptr noundef %_ptr) #0 {
entry:
  %_ptr.addr = alloca ptr, align 8
  store ptr %_ptr, ptr %_ptr.addr, align 8
  %0 = load ptr, ptr %_ptr.addr, align 8
  %tobool = icmp ne ptr %0, null
  br i1 %tobool, label %if.then, label %if.end

if.then:                                          ; preds = %entry
  %1 = load ptr, ptr %_ptr.addr, align 8
  call void @qapi_free_HumanReadableText(ptr noundef %1)
  br label %if.end

if.end:                                           ; preds = %if.then, %entry
  ret void
}

; Function Attrs: nounwind sspstrong uwtable
define internal void @glib_autoptr_cleanup_HumanReadableText(ptr noundef %_ptr) #0 {
entry:
  %_ptr.addr = alloca ptr, align 8
  store ptr %_ptr, ptr %_ptr.addr, align 8
  %0 = load ptr, ptr %_ptr.addr, align 8
  %1 = load ptr, ptr %0, align 8
  call void @glib_autoptr_clear_HumanReadableText(ptr noundef %1)
  ret void
}

; Function Attrs: nounwind sspstrong uwtable
define internal void @hmp_info_human_readable_text(ptr noundef %mon, ptr noundef %handler) #0 {
entry:
  %mon.addr = alloca ptr, align 8
  %handler.addr = alloca ptr, align 8
  %err = alloca ptr, align 8
  %info = alloca ptr, align 8
  %cleanup.dest.slot = alloca i32, align 4
  store ptr %mon, ptr %mon.addr, align 8
  store ptr %handler, ptr %handler.addr, align 8
  store ptr null, ptr %err, align 8
  %0 = load ptr, ptr %handler.addr, align 8
  %call = call ptr %0(ptr noundef %err)
  store ptr %call, ptr %info, align 8
  %1 = load ptr, ptr %mon.addr, align 8
  %2 = load ptr, ptr %err, align 8
  %call1 = call zeroext i1 @hmp_handle_error(ptr noundef %1, ptr noundef %2)
  br i1 %call1, label %if.then, label %if.end

if.then:                                          ; preds = %entry
  store i32 1, ptr %cleanup.dest.slot, align 4
  br label %cleanup

if.end:                                           ; preds = %entry
  %3 = load ptr, ptr %mon.addr, align 8
  %4 = load ptr, ptr %info, align 8
  %human_readable_text = getelementptr inbounds %struct.HumanReadableText, ptr %4, i32 0, i32 0
  %5 = load ptr, ptr %human_readable_text, align 8
  %call2 = call i32 @monitor_puts(ptr noundef %3, ptr noundef %5)
  store i32 0, ptr %cleanup.dest.slot, align 4
  br label %cleanup

cleanup:                                          ; preds = %if.end, %if.then
  call void @glib_autoptr_cleanup_HumanReadableText(ptr noundef %info)
  %cleanup.dest = load i32, ptr %cleanup.dest.slot, align 4
  switch i32 %cleanup.dest, label %unreachable [
    i32 0, label %cleanup.cont
    i32 1, label %cleanup.cont
  ]

cleanup.cont:                                     ; preds = %cleanup, %cleanup
  ret void

unreachable:                                      ; preds = %cleanup
  unreachable
}

; Function Attrs: nounwind sspstrong uwtable
define internal void @handle_hmp_command_exec(ptr noundef %mon, ptr noundef %cmd, ptr noundef %qdict) #0 {
entry:
  %mon.addr = alloca ptr, align 8
  %cmd.addr = alloca ptr, align 8
  %qdict.addr = alloca ptr, align 8
  store ptr %mon, ptr %mon.addr, align 8
  store ptr %cmd, ptr %cmd.addr, align 8
  store ptr %qdict, ptr %qdict.addr, align 8
  %0 = load ptr, ptr %cmd.addr, align 8
  %cmd_info_hrt = getelementptr inbounds %struct.HMPCommand, ptr %0, i32 0, i32 6
  %1 = load ptr, ptr %cmd_info_hrt, align 8
  %tobool = icmp ne ptr %1, null
  br i1 %tobool, label %if.then, label %if.else

if.then:                                          ; preds = %entry
  %2 = load ptr, ptr %mon.addr, align 8
  %3 = load ptr, ptr %cmd.addr, align 8
  %cmd_info_hrt1 = getelementptr inbounds %struct.HMPCommand, ptr %3, i32 0, i32 6
  %4 = load ptr, ptr %cmd_info_hrt1, align 8
  call void @hmp_info_human_readable_text(ptr noundef %2, ptr noundef %4)
  br label %if.end

if.else:                                          ; preds = %entry
  %5 = load ptr, ptr %cmd.addr, align 8
  %cmd2 = getelementptr inbounds %struct.HMPCommand, ptr %5, i32 0, i32 5
  %6 = load ptr, ptr %cmd2, align 8
  %7 = load ptr, ptr %mon.addr, align 8
  %8 = load ptr, ptr %qdict.addr, align 8
  call void %6(ptr noundef %7, ptr noundef %8)
  br label %if.end

if.end:                                           ; preds = %if.else, %if.then
  ret void
}

; Function Attrs: nounwind sspstrong uwtable
define internal void @handle_hmp_command_co(ptr noundef %opaque) #0 {
entry:
  %opaque.addr = alloca ptr, align 8
  %data = alloca ptr, align 8
  store ptr %opaque, ptr %opaque.addr, align 8
  %0 = load ptr, ptr %opaque.addr, align 8
  store ptr %0, ptr %data, align 8
  %1 = load ptr, ptr %data, align 8
  %mon = getelementptr inbounds %struct.HandleHmpCommandCo, ptr %1, i32 0, i32 0
  %2 = load ptr, ptr %mon, align 8
  %3 = load ptr, ptr %data, align 8
  %cmd = getelementptr inbounds %struct.HandleHmpCommandCo, ptr %3, i32 0, i32 1
  %4 = load ptr, ptr %cmd, align 8
  %5 = load ptr, ptr %data, align 8
  %qdict = getelementptr inbounds %struct.HandleHmpCommandCo, ptr %5, i32 0, i32 2
  %6 = load ptr, ptr %qdict, align 8
  call void @handle_hmp_command_exec(ptr noundef %2, ptr noundef %4, ptr noundef %6)
  %call = call ptr @qemu_coroutine_self()
  %call1 = call ptr @monitor_set_cur(ptr noundef %call, ptr noundef null)
  %7 = load ptr, ptr %data, align 8
  %done = getelementptr inbounds %struct.HandleHmpCommandCo, ptr %7, i32 0, i32 3
  store i8 1, ptr %done, align 8
  ret void
}