; Function Attrs: nounwind sspstrong uwtable
define internal void @handle_hmp_command_co(ptr noundef captures(none) initializes((24, 25)) %opaque) #0 {
entry:
  %err.i.i = alloca ptr, align 8
  %0 = load ptr, ptr %opaque, align 8
  %cmd = getelementptr inbounds nuw i8, ptr %opaque, i64 8
  %1 = load ptr, ptr %cmd, align 8
  %cmd_info_hrt.i = getelementptr inbounds nuw i8, ptr %1, i64 48
  %2 = load ptr, ptr %cmd_info_hrt.i, align 8
  %tobool.not.i = icmp eq ptr %2, null
  br i1 %tobool.not.i, label %if.else.i, label %if.then.i

if.then.i:                                        ; preds = %entry
  call void @llvm.lifetime.start.p0(i64 8, ptr nonnull %err.i.i)
  store ptr null, ptr %err.i.i, align 8
  %call.i.i = call ptr %2(ptr noundef nonnull %err.i.i) #19
  %3 = load ptr, ptr %err.i.i, align 8
  %call1.i.i = call zeroext i1 @hmp_handle_error(ptr noundef %0, ptr noundef %3) #19
  br i1 %call1.i.i, label %cleanup.i.i, label %cleanup.thread.i.i

cleanup.thread.i.i:                               ; preds = %if.then.i
  %4 = load ptr, ptr %call.i.i, align 8
  %call2.i.i = call i32 @monitor_puts(ptr noundef %0, ptr noundef %4) #19
  br label %if.then.i.i.i.i

cleanup.i.i:                                      ; preds = %if.then.i
  %tobool.not.i.i.i.i = icmp eq ptr %call.i.i, null
  br i1 %tobool.not.i.i.i.i, label %hmp_info_human_readable_text.exit.i, label %if.then.i.i.i.i

if.then.i.i.i.i:                                  ; preds = %cleanup.i.i, %cleanup.thread.i.i
  call void @qapi_free_HumanReadableText(ptr noundef nonnull %call.i.i) #19
  br label %hmp_info_human_readable_text.exit.i

hmp_info_human_readable_text.exit.i:              ; preds = %if.then.i.i.i.i, %cleanup.i.i
  call void @llvm.lifetime.end.p0(i64 8, ptr nonnull %err.i.i)
  br label %handle_hmp_command_exec.exit

if.else.i:                                        ; preds = %entry
  %qdict = getelementptr inbounds nuw i8, ptr %opaque, i64 16
  %5 = load ptr, ptr %qdict, align 8
  %cmd2.i = getelementptr inbounds nuw i8, ptr %1, i64 40
  %6 = load ptr, ptr %cmd2.i, align 8
  tail call void %6(ptr noundef %0, ptr noundef %5) #19
  br label %handle_hmp_command_exec.exit

handle_hmp_command_exec.exit:                     ; preds = %hmp_info_human_readable_text.exit.i, %if.else.i
  %call = call ptr @qemu_coroutine_self() #19
  %call1 = call ptr @monitor_set_cur(ptr noundef %call, ptr noundef null) #19
  %done = getelementptr inbounds nuw i8, ptr %opaque, i64 24
  store i8 1, ptr %done, align 8
  ret void
}